target datalayout = "e-m:e-p270:32:32-p271:32:32-p272:64:64-i64:64-i128:128-f80:128-n8:16:32:64-S128"
target triple = "x86_64-unknown-linux-gnu"

%"class.icu_75::CurrencyPluralInfo" = type <{ %"class.icu_75::UObject", ptr, ptr, ptr, i32, [4 x i8] }>
%"class.icu_75::UObject" = type { ptr }
%"class.icu_75::Hashtable" = type { ptr, %struct.UHashtable }
%struct.UHashtable = type { ptr, ptr, ptr, ptr, ptr, ptr, i32, i32, i32, i32, float, float, i8, i8 }

; Function Attrs: mustprogress uwtable
define linkonce_odr noundef signext i8 @_ZNK6icu_759Hashtable6equalsERKS0_(ptr noundef nonnull align 8 dereferenceable(88) %this, ptr noundef nonnull align 8 dereferenceable(88) %that) #1 comdat align 2 {
entry:
  %this.addr = alloca ptr, align 8
  %that.addr = alloca ptr, align 8
  store ptr %this, ptr %this.addr, align 8
  store ptr %that, ptr %that.addr, align 8
  %this1 = load ptr, ptr %this.addr, align 8
  %hash = getelementptr inbounds %"class.icu_75::Hashtable", ptr %this1, i32 0, i32 0
  %0 = load ptr, ptr %hash, align 8
  %1 = load ptr, ptr %that.addr, align 8
  %hash2 = getelementptr inbounds %"class.icu_75::Hashtable", ptr %1, i32 0, i32 0
  %2 = load ptr, ptr %hash2, align 8
  %call = call signext i8 @uhash_equals_75(ptr noundef %0, ptr noundef %2)
  ret i8 %call
}

; Function Attrs: mustprogress uwtable
define noundef zeroext i1 @_ZNK6icu_7518CurrencyPluralInfoeqERKS0_(ptr noundef nonnull align 8 dereferenceable(36) %this, ptr noundef nonnull align 8 dereferenceable(36) %info) #1 align 2 {
entry:
  %this.addr = alloca ptr, align 8
  %info.addr = alloca ptr, align 8
  store ptr %this, ptr %this.addr, align 8
  store ptr %info, ptr %info.addr, align 8
  %this1 = load ptr, ptr %this.addr, align 8
  %fPluralRules = getelementptr inbounds %"class.icu_75::CurrencyPluralInfo", ptr %this1, i32 0, i32 2
  %0 = load ptr, ptr %fPluralRules, align 8
  %1 = load ptr, ptr %info.addr, align 8
  %fPluralRules2 = getelementptr inbounds %"class.icu_75::CurrencyPluralInfo", ptr %1, i32 0, i32 2
  %2 = load ptr, ptr %fPluralRules2, align 8
  %vtable = load ptr, ptr %0, align 8
  %vfn = getelementptr inbounds ptr, ptr %vtable, i64 3
  %3 = load ptr, ptr %vfn, align 8
  %call = call noundef zeroext i1 %3(ptr noundef nonnull align 8 dereferenceable(28) %0, ptr noundef nonnull align 8 dereferenceable(28) %2)
  br i1 %call, label %land.lhs.true, label %land.end

land.lhs.true:                                    ; preds = %entry
  %fLocale = getelementptr inbounds %"class.icu_75::CurrencyPluralInfo", ptr %this1, i32 0, i32 3
  %4 = load ptr, ptr %fLocale, align 8
  %5 = load ptr, ptr %info.addr, align 8
  %fLocale3 = getelementptr inbounds %"class.icu_75::CurrencyPluralInfo", ptr %5, i32 0, i32 3
  %6 = load ptr, ptr %fLocale3, align 8
  %call4 = call noundef zeroext i1 @_ZNK6icu_756LocaleeqERKS0_(ptr noundef nonnull align 8 dereferenceable(217) %4, ptr noundef nonnull align 8 dereferenceable(217) %6)
  br i1 %call4, label %land.rhs, label %land.end

land.rhs:                                         ; preds = %land.lhs.true
  %fPluralCountToCurrencyUnitPattern = getelementptr inbounds %"class.icu_75::CurrencyPluralInfo", ptr %this1, i32 0, i32 1
  %7 = load ptr, ptr %fPluralCountToCurrencyUnitPattern, align 8
  %8 = load ptr, ptr %info.addr, align 8
  %fPluralCountToCurrencyUnitPattern5 = getelementptr inbounds %"class.icu_75::CurrencyPluralInfo", ptr %8, i32 0, i32 1
  %9 = load ptr, ptr %fPluralCountToCurrencyUnitPattern5, align 8
  %call6 = call noundef signext i8 @_ZNK6icu_759Hashtable6equalsERKS0_(ptr noundef nonnull align 8 dereferenceable(88) %7, ptr noundef nonnull align 8 dereferenceable(88) %9)
  %tobool = icmp ne i8 %call6, 0
  br label %land.end

land.end:                                         ; preds = %land.rhs, %land.lhs.true, %entry
  %10 = phi i1 [ false, %land.lhs.true ], [ false, %entry ], [ %tobool, %land.rhs ]
  ret i1 %10
}