; Function Attrs: mustprogress uwtable
define noundef zeroext i1 @_ZNK6icu_7518CurrencyPluralInfoeqERKS0_(ptr nocapture noundef nonnull readonly align 8 dereferenceable(36) %this, ptr nocapture noundef nonnull readonly align 8 dereferenceable(36) %info) local_unnamed_addr #1 align 2 {
entry:
  %fPluralRules = getelementptr inbounds i8, ptr %this, i64 16
  %0 = load ptr, ptr %fPluralRules, align 8
  %fPluralRules2 = getelementptr inbounds i8, ptr %info, i64 16
  %1 = load ptr, ptr %fPluralRules2, align 8
  %vtable = load ptr, ptr %0, align 8
  %vfn = getelementptr inbounds i8, ptr %vtable, i64 24
  %2 = load ptr, ptr %vfn, align 8
  %call = tail call noundef zeroext i1 %2(ptr noundef nonnull align 8 dereferenceable(28) %0, ptr noundef nonnull align 8 dereferenceable(28) %1)
  br i1 %call, label %land.lhs.true, label %land.end

land.lhs.true:                                    ; preds = %entry
  %fLocale = getelementptr inbounds i8, ptr %this, i64 24
  %3 = load ptr, ptr %fLocale, align 8
  %fLocale3 = getelementptr inbounds i8, ptr %info, i64 24
  %4 = load ptr, ptr %fLocale3, align 8
  %call4 = tail call noundef zeroext i1 @_ZNK6icu_756LocaleeqERKS0_(ptr noundef nonnull align 8 dereferenceable(217) %3, ptr noundef nonnull align 8 dereferenceable(217) %4)
  br i1 %call4, label %land.rhs, label %land.end

land.rhs:                                         ; preds = %land.lhs.true
  %fPluralCountToCurrencyUnitPattern = getelementptr inbounds i8, ptr %this, i64 8
  %5 = load ptr, ptr %fPluralCountToCurrencyUnitPattern, align 8
  %fPluralCountToCurrencyUnitPattern5 = getelementptr inbounds i8, ptr %info, i64 8
  %6 = load ptr, ptr %fPluralCountToCurrencyUnitPattern5, align 8
  %7 = load ptr, ptr %5, align 8
  %8 = load ptr, ptr %6, align 8
  %call.i = tail call noundef signext i8 @uhash_equals_75(ptr noundef %7, ptr noundef %8)
  %tobool = icmp ne i8 %call.i, 0
  br label %land.end

land.end:                                         ; preds = %land.rhs, %land.lhs.true, %entry
  %9 = phi i1 [ false, %land.lhs.true ], [ false, %entry ], [ %tobool, %land.rhs ]
  ret i1 %9
}